; Function Attrs: mustprogress nofree norecurse nosync nounwind willreturn memory(argmem: write) uwtable
define hidden void @_ZN3sat3musC2ERNS_6solverE(ptr nocapture noundef nonnull writeonly align 8 dereferenceable(44) %this, ptr noundef nonnull align 8 dereferenceable(4408) %s) unnamed_addr #3 align 2 personality ptr @__gxx_personality_v0 {
entry:
  store ptr %s, ptr %this, align 8
  %m_core = getelementptr inbounds i8, ptr %this, i64 8
  %m_model = getelementptr inbounds i8, ptr %this, i64 32
  store ptr null, ptr %m_model, align 8
  %m_max_num_restarts = getelementptr inbounds i8, ptr %this, i64 40
  tail call void @llvm.memset.p0.i64(ptr noundef nonnull align 8 dereferenceable(17) %m_core, i8 0, i64 17, i1 false)
  store i32 -1, ptr %m_max_num_restarts, align 8
  ret void
}